; ModuleID = '23/956.c'
source_filename = "23/956.c"
target datalayout = "e-m:e-p270:32:32-p271:32:32-p272:64:64-i64:64-f80:128-n8:16:32:64-S128"
target triple = "x86_64-pc-linux-gnu"

@str = common dso_local global [100 x i8] zeroinitializer, align 16
@a = common dso_local global [1 x i8] zeroinitializer, align 1
@word = common dso_local global [100 x [100 x i8]] zeroinitializer, align 16
@.str = private unnamed_addr constant [4 x i8] c"%s \00", align 1
@.str.1 = private unnamed_addr constant [3 x i8] c"%s\00", align 1

; Function Attrs: noinline nounwind uwtable
define dso_local void @main() #0 {
  %1 = alloca i32, align 4
  %2 = alloca i32, align 4
  %3 = alloca i8*, align 8
  store i32 0, i32* %1, align 4
  %4 = call i32 (i8*, ...) bitcast (i32 (...)* @gets to i32 (i8*, ...)*)(i8* getelementptr inbounds ([100 x i8], [100 x i8]* @str, i64 0, i64 0))
  store i8* getelementptr inbounds ([100 x i8], [100 x i8]* @str, i64 0, i64 0), i8** %3, align 8
  br label %5

5:                                                ; preds = %28, %0
  %6 = load i8*, i8** %3, align 8
  %7 = ptrtoint i8* %6 to i64
  %8 = sub i64 %7, ptrtoint ([100 x i8]* @str to i64)
  %9 = call i64 @strlen(i8* getelementptr inbounds ([100 x i8], [100 x i8]* @str, i64 0, i64 0)) #4
  %10 = icmp ult i64 %8, %9
  br i1 %10, label %11, label %31

11:                                               ; preds = %5
  %12 = load i8*, i8** %3, align 8
  %13 = load i8, i8* %12, align 1
  %14 = sext i8 %13 to i32
  %15 = icmp ne i32 %14, 32
  br i1 %15, label %16, label %24

16:                                               ; preds = %11
  %17 = load i8*, i8** %3, align 8
  %18 = load i8, i8* %17, align 1
  store i8 %18, i8* getelementptr inbounds ([1 x i8], [1 x i8]* @a, i64 0, i64 0), align 1
  %19 = load i32, i32* %1, align 4
  %20 = sext i32 %19 to i64
  %21 = getelementptr inbounds [100 x [100 x i8]], [100 x [100 x i8]]* @word, i64 0, i64 %20
  %22 = getelementptr inbounds [100 x i8], [100 x i8]* %21, i64 0, i64 0
  %23 = call i8* @strcat(i8* %22, i8* getelementptr inbounds ([1 x i8], [1 x i8]* @a, i64 0, i64 0)) #5
  br label %27

24:                                               ; preds = %11
  %25 = load i32, i32* %1, align 4
  %26 = add nsw i32 %25, 1
  store i32 %26, i32* %1, align 4
  br label %27

27:                                               ; preds = %24, %16
  br label %28

28:                                               ; preds = %27
  %29 = load i8*, i8** %3, align 8
  %30 = getelementptr inbounds i8, i8* %29, i32 1
  store i8* %30, i8** %3, align 8
  br label %5

31:                                               ; preds = %5
  %32 = load i32, i32* %1, align 4
  store i32 %32, i32* %2, align 4
  br label %33

33:                                               ; preds = %42, %31
  %34 = load i32, i32* %2, align 4
  %35 = icmp sgt i32 %34, 0
  br i1 %35, label %36, label %45

36:                                               ; preds = %33
  %37 = load i32, i32* %2, align 4
  %38 = sext i32 %37 to i64
  %39 = getelementptr inbounds [100 x [100 x i8]], [100 x [100 x i8]]* @word, i64 0, i64 %38
  %40 = getelementptr inbounds [100 x i8], [100 x i8]* %39, i64 0, i64 0
  %41 = call i32 (i8*, ...) @printf(i8* getelementptr inbounds ([4 x i8], [4 x i8]* @.str, i64 0, i64 0), i8* %40)
  br label %42

42:                                               ; preds = %36
  %43 = load i32, i32* %2, align 4
  %44 = add nsw i32 %43, -1
  store i32 %44, i32* %2, align 4
  br label %33

45:                                               ; preds = %33
  %46 = call i32 (i8*, ...) @printf(i8* getelementptr inbounds ([3 x i8], [3 x i8]* @.str.1, i64 0, i64 0), i8* getelementptr inbounds ([100 x [100 x i8]], [100 x [100 x i8]]* @word, i64 0, i64 0, i64 0))
  ret void
}

declare dso_local i32 @gets(...) #1

; Function Attrs: nounwind readonly
declare dso_local i64 @strlen(i8*) #2

; Function Attrs: nounwind
declare dso_local i8* @strcat(i8*, i8*) #3

declare dso_local i32 @printf(i8*, ...) #1


!llvm.module.flags = !{!0}
!llvm.ident = !{!1}

!0 = !{i32 1, !"wchar_size", i32 4}
!1 = !{!"clang version 10.0.0-4ubuntu1 "}
